target datalayout = "e-m:e-p270:32:32-p271:32:32-p272:64:64-i64:64-i128:128-f80:128-n8:16:32:64-S128"
target triple = "x86_64-pc-linux-gnu"

%struct.AVOutputFormat = type { ptr, ptr, ptr, ptr, i32, i32, i32, i32, ptr, ptr }
%struct.AVClass = type { ptr, ptr, ptr, i32, i32, i32, i32, ptr, ptr, ptr, ptr, i32 }

@.str.184 = private unnamed_addr constant [29 x i8] c"Auto-detected sinks for %s:\0A\00", align 1
@.str.185 = private unnamed_addr constant [23 x i8] c"Cannot list sinks: %s\0A\00", align 1

; Function Attrs: inlinehint nounwind uwtable
define internal ptr @av_make_error_string(ptr noundef %0, i64 noundef %1, i32 noundef %2) #5 {
  %4 = alloca ptr, align 8
  %5 = alloca i64, align 8
  %6 = alloca i32, align 4
  store ptr %0, ptr %4, align 8, !tbaa !8
  store i64 %1, ptr %5, align 8, !tbaa !140
  store i32 %2, ptr %6, align 4, !tbaa !10
  %7 = load i32, ptr %6, align 4, !tbaa !10
  %8 = load ptr, ptr %4, align 8, !tbaa !8
  %9 = load i64, ptr %5, align 8, !tbaa !140
  %10 = call i32 @av_strerror(i32 noundef %7, ptr noundef %8, i64 noundef %9)
  %11 = load ptr, ptr %4, align 8, !tbaa !8
  ret ptr %11
}

; Function Attrs: nounwind uwtable
define internal i32 @print_device_sinks(ptr noundef %0, ptr noundef %1) #0 {
  %3 = alloca i32, align 4
  %4 = alloca ptr, align 8
  %5 = alloca ptr, align 8
  %6 = alloca i32, align 4
  %7 = alloca ptr, align 8
  %8 = alloca i32, align 4
  %9 = alloca [64 x i8], align 1
  store ptr %0, ptr %4, align 8, !tbaa !39
  store ptr %1, ptr %5, align 8, !tbaa !154
  call void @llvm.lifetime.start.p0(i64 4, ptr %6) #11
  call void @llvm.lifetime.start.p0(i64 8, ptr %7) #11
  store ptr null, ptr %7, align 8, !tbaa !160
  %10 = load ptr, ptr %4, align 8, !tbaa !39
  %11 = icmp ne ptr %10, null
  br i1 %11, label %12, label %38

12:                                               ; preds = %2
  %13 = load ptr, ptr %4, align 8, !tbaa !39
  %14 = getelementptr inbounds nuw %struct.AVOutputFormat, ptr %13, i32 0, i32 9
  %15 = load ptr, ptr %14, align 8, !tbaa !50
  %16 = icmp ne ptr %15, null
  br i1 %16, label %17, label %38

17:                                               ; preds = %12
  %18 = load ptr, ptr %4, align 8, !tbaa !39
  %19 = getelementptr inbounds nuw %struct.AVOutputFormat, ptr %18, i32 0, i32 9
  %20 = load ptr, ptr %19, align 8, !tbaa !50
  %21 = getelementptr inbounds nuw %struct.AVClass, ptr %20, i32 0, i32 6
  %22 = load i32, ptr %21, align 4, !tbaa !162
  %23 = icmp eq i32 %22, 40
  br i1 %23, label %39, label %24

24:                                               ; preds = %17
  %25 = load ptr, ptr %4, align 8, !tbaa !39
  %26 = getelementptr inbounds nuw %struct.AVOutputFormat, ptr %25, i32 0, i32 9
  %27 = load ptr, ptr %26, align 8, !tbaa !50
  %28 = getelementptr inbounds nuw %struct.AVClass, ptr %27, i32 0, i32 6
  %29 = load i32, ptr %28, align 4, !tbaa !162
  %30 = icmp eq i32 %29, 42
  br i1 %30, label %39, label %31

31:                                               ; preds = %24
  %32 = load ptr, ptr %4, align 8, !tbaa !39
  %33 = getelementptr inbounds nuw %struct.AVOutputFormat, ptr %32, i32 0, i32 9
  %34 = load ptr, ptr %33, align 8, !tbaa !50
  %35 = getelementptr inbounds nuw %struct.AVClass, ptr %34, i32 0, i32 6
  %36 = load i32, ptr %35, align 4, !tbaa !162
  %37 = icmp eq i32 %36, 44
  br i1 %37, label %39, label %38

38:                                               ; preds = %31, %12, %2
  store i32 -22, ptr %3, align 4
  store i32 1, ptr %8, align 4
  br label %57

39:                                               ; preds = %31, %24, %17
  %40 = load ptr, ptr %4, align 8, !tbaa !39
  %41 = getelementptr inbounds nuw %struct.AVOutputFormat, ptr %40, i32 0, i32 0
  %42 = load ptr, ptr %41, align 8, !tbaa !41
  %43 = call i32 (ptr, ...) @printf(ptr noundef @.str.184, ptr noundef %42)
  %44 = load ptr, ptr %4, align 8, !tbaa !39
  %45 = load ptr, ptr %5, align 8, !tbaa !154
  %46 = call i32 @avdevice_list_output_sinks(ptr noundef %44, ptr noundef null, ptr noundef %45, ptr noundef %7)
  store i32 %46, ptr %6, align 4, !tbaa !10
  %47 = icmp slt i32 %46, 0
  br i1 %47, label %48, label %53

48:                                               ; preds = %39
  call void @llvm.memset.p0.i64(ptr align 1 %9, i8 0, i64 64, i1 false)
  %49 = getelementptr inbounds [64 x i8], ptr %9, i64 0, i64 0
  %50 = load i32, ptr %6, align 4, !tbaa !10
  %51 = call ptr @av_make_error_string(ptr noundef %49, i64 noundef 64, i32 noundef %50)
  %52 = call i32 (ptr, ...) @printf(ptr noundef @.str.185, ptr noundef %51)
  br label %55

53:                                               ; preds = %39
  %54 = load ptr, ptr %7, align 8, !tbaa !160
  call void @print_device_list(ptr noundef %54)
  br label %55

55:                                               ; preds = %53, %48
  call void @avdevice_free_list_devices(ptr noundef %7)
  %56 = load i32, ptr %6, align 4, !tbaa !10
  store i32 %56, ptr %3, align 4
  store i32 1, ptr %8, align 4
  br label %57

57:                                               ; preds = %55, %38
  call void @llvm.lifetime.end.p0(i64 8, ptr %7) #11
  call void @llvm.lifetime.end.p0(i64 4, ptr %6) #11
  %58 = load i32, ptr %3, align 4
  ret i32 %58
}