; Function Attrs: nounwind uwtable
define internal fastcc void @print_device_sinks(ptr noundef nonnull %0, ptr noundef %1) unnamed_addr #2 {
  %3 = alloca ptr, align 8
  %4 = alloca [64 x i8], align 1
  call void @llvm.lifetime.start.p0(i64 8, ptr nonnull %3) #17
  store ptr null, ptr %3, align 8, !tbaa !132
  %5 = getelementptr inbounds nuw i8, ptr %0, i64 56
  %6 = load ptr, ptr %5, align 8, !tbaa !36
  %.not = icmp eq ptr %6, null
  br i1 %.not, label %21, label %7

7:                                                ; preds = %2
  %8 = getelementptr inbounds nuw i8, ptr %6, i64 36
  %9 = load i32, ptr %8, align 4, !tbaa !84
  switch i32 %9, label %21 [
    i32 40, label %10
    i32 42, label %10
    i32 44, label %10
  ]

10:                                               ; preds = %7, %7, %7
  %11 = load ptr, ptr %0, align 8, !tbaa !24
  %12 = tail call i32 (ptr, ...) @printf(ptr noundef nonnull dereferenceable(1) @.str.184, ptr noundef %11)
  %13 = call i32 @avdevice_list_output_sinks(ptr noundef nonnull %0, ptr noundef null, ptr noundef %1, ptr noundef nonnull %3) #17
  %14 = icmp slt i32 %13, 0
  br i1 %14, label %15, label %18

15:                                               ; preds = %10
  call void @llvm.memset.p0.i64(ptr noundef nonnull align 1 dereferenceable(64) %4, i8 0, i64 64, i1 false)
  %16 = call i32 @av_strerror(i32 noundef range(i32 -2147483648, 0) %13, ptr noundef nonnull %4, i64 noundef 64) #17
  %17 = call i32 (ptr, ...) @printf(ptr noundef nonnull dereferenceable(1) @.str.185, ptr noundef nonnull %4)
  br label %20

18:                                               ; preds = %10
  %19 = load ptr, ptr %3, align 8, !tbaa !132
  call fastcc void @print_device_list(ptr noundef %19)
  br label %20

20:                                               ; preds = %18, %15
  call void @avdevice_free_list_devices(ptr noundef nonnull %3) #17
  br label %21

21:                                               ; preds = %2, %7, %20
  call void @llvm.lifetime.end.p0(i64 8, ptr nonnull %3) #17
  ret void
}